target datalayout = "e-m:e-p270:32:32-p271:32:32-p272:64:64-i64:64-i128:128-f80:128-n8:16:32:64-S128"
target triple = "x86_64-pc-linux-gnu"

%struct.Int128_ = type { i64, i64 }
%struct.Int = type { %struct.Int128_, i32 }

; Function Attrs: nounwind uwtable
define dso_local double @i128_to_float(i64 %0, i64 %1) #0 {
  %3 = alloca %struct.Int128_, align 8
  %4 = getelementptr inbounds { i64, i64 }, ptr %3, i32 0, i32 0
  store i64 %0, ptr %4, align 8
  %5 = getelementptr inbounds { i64, i64 }, ptr %3, i32 0, i32 1
  store i64 %1, ptr %5, align 8
  %6 = getelementptr inbounds %struct.Int128_, ptr %3, i32 0, i32 1
  %7 = load i64, ptr %6, align 8
  %8 = uitofp i64 %7 to double
  %9 = getelementptr inbounds %struct.Int128_, ptr %3, i32 0, i32 0
  %10 = load i64, ptr %9, align 8
  %11 = uitofp i64 %10 to double
  %12 = call double @ldexp(double noundef %11, i32 noundef 64) #7
  %13 = fadd double %8, %12
  ret double %13
}

; Function Attrs: nounwind uwtable
define dso_local double @int_to_real(ptr noundef byval(%struct.Int) align 8 %0) #0 {
  %2 = alloca i32, align 4
  %3 = alloca double, align 8
  %4 = getelementptr inbounds %struct.Int, ptr %0, i32 0, i32 1
  %5 = load i32, ptr %4, align 8
  store i32 %5, ptr %2, align 4
  %6 = load i32, ptr %2, align 4
  %7 = icmp uge i32 %6, 3
  br i1 %7, label %8, label %11

8:                                                ; preds = %1
  %9 = load i32, ptr %2, align 4
  %10 = icmp ult i32 %9, 8
  br label %11

11:                                               ; preds = %8, %1
  %12 = phi i1 [ false, %1 ], [ %10, %8 ]
  br i1 %12, label %13, label %20

13:                                               ; preds = %11
  %14 = getelementptr inbounds %struct.Int, ptr %0, i32 0, i32 0
  %15 = getelementptr inbounds { i64, i64 }, ptr %14, i32 0, i32 0
  %16 = load i64, ptr %15, align 8
  %17 = getelementptr inbounds { i64, i64 }, ptr %14, i32 0, i32 1
  %18 = load i64, ptr %17, align 8
  %19 = call double @i128_to_float_signed(i64 %16, i64 %18)
  store double %19, ptr %3, align 8
  br label %27

20:                                               ; preds = %11
  %21 = getelementptr inbounds %struct.Int, ptr %0, i32 0, i32 0
  %22 = getelementptr inbounds { i64, i64 }, ptr %21, i32 0, i32 0
  %23 = load i64, ptr %22, align 8
  %24 = getelementptr inbounds { i64, i64 }, ptr %21, i32 0, i32 1
  %25 = load i64, ptr %24, align 8
  %26 = call double @i128_to_float(i64 %23, i64 %25)
  store double %26, ptr %3, align 8
  br label %27

27:                                               ; preds = %20, %13
  %28 = load double, ptr %3, align 8
  ret double %28
}