; Function Attrs: nofree nounwind uwtable
define dso_local double @int_to_real(ptr noundef readonly byval(%struct.Int) align 8 captures(none) %0) local_unnamed_addr #12 {
  %2 = getelementptr inbounds nuw i8, ptr %0, i64 16
  %3 = load i32, ptr %2, align 8
  %4 = add i32 %3, -3
  %5 = icmp ult i32 %4, 5
  %6 = load i64, ptr %0, align 8
  %7 = getelementptr inbounds nuw i8, ptr %0, i64 8
  %8 = load i64, ptr %7, align 8
  br i1 %5, label %9, label %11

9:                                                ; preds = %1
  %10 = tail call double @i128_to_float_signed(i64 %6, i64 %8)
  br label %16

11:                                               ; preds = %1
  %12 = uitofp i64 %8 to double
  %13 = uitofp i64 %6 to double
  %14 = tail call double @ldexp(double noundef %13, i32 noundef 64) #19
  %15 = fadd double %14, %12
  br label %16

16:                                               ; preds = %11, %9
  %.0 = phi double [ %10, %9 ], [ %15, %11 ]
  ret double %.0
}